; Function Attrs: mustprogress uwtable
define void @_Z10showErrorsR4DataRK7Options(ptr noundef nonnull align 8 dereferenceable(736) %0, ptr noundef nonnull readonly align 4 captures(none) dereferenceable(37) %1) local_unnamed_addr #3 personality ptr @__gxx_personality_v0 {
  %3 = alloca %struct.Data, align 8
  %4 = tail call noundef nonnull align 8 dereferenceable(8) ptr @_ZSt16__ostream_insertIcSt11char_traitsIcEERSt13basic_ostreamIT_T0_ES6_PKS3_l(ptr noundef nonnull align 8 dereferenceable(8) @_ZSt4cout, ptr noundef nonnull @.str.176, i64 noundef 14)
  %5 = load ptr, ptr @_ZSt4cout, align 8, !tbaa !3
  %6 = getelementptr i8, ptr %5, i64 -24
  %7 = load i64, ptr %6, align 8
  %8 = getelementptr inbounds i8, ptr @_ZSt4cout, i64 %7
  %9 = getelementptr inbounds nuw i8, ptr %8, i64 240
  %10 = load ptr, ptr %9, align 8, !tbaa !6
  %.not.i.i.i = icmp eq ptr %10, null
  br i1 %.not.i.i.i, label %11, label %_ZSt13__check_facetISt5ctypeIcEERKT_PS3_.exit.i.i

11:                                               ; preds = %2
  tail call void @_ZSt16__throw_bad_castv() #28
  unreachable

_ZSt13__check_facetISt5ctypeIcEERKT_PS3_.exit.i.i: ; preds = %2
  %12 = getelementptr inbounds nuw i8, ptr %10, i64 56
  %13 = load i8, ptr %12, align 8, !tbaa !26
  %.not.i1.i.i = icmp eq i8 %13, 0
  br i1 %.not.i1.i.i, label %17, label %14

14:                                               ; preds = %_ZSt13__check_facetISt5ctypeIcEERKT_PS3_.exit.i.i
  %15 = getelementptr inbounds nuw i8, ptr %10, i64 67
  %16 = load i8, ptr %15, align 1, !tbaa !32
  br label %_ZSt4endlIcSt11char_traitsIcEERSt13basic_ostreamIT_T0_ES6_.exit

17:                                               ; preds = %_ZSt13__check_facetISt5ctypeIcEERKT_PS3_.exit.i.i
  tail call void @_ZNKSt5ctypeIcE13_M_widen_initEv(ptr noundef nonnull align 8 dereferenceable(570) %10)
  %18 = load ptr, ptr %10, align 8, !tbaa !3
  %19 = getelementptr inbounds nuw i8, ptr %18, i64 48
  %20 = load ptr, ptr %19, align 8
  %21 = tail call noundef signext i8 %20(ptr noundef nonnull align 8 dereferenceable(570) %10, i8 noundef signext 10)
  br label %_ZSt4endlIcSt11char_traitsIcEERSt13basic_ostreamIT_T0_ES6_.exit

_ZSt4endlIcSt11char_traitsIcEERSt13basic_ostreamIT_T0_ES6_.exit: ; preds = %14, %17
  %.0.i.i.i = phi i8 [ %16, %14 ], [ %21, %17 ]
  %22 = tail call noundef nonnull align 8 dereferenceable(8) ptr @_ZNSo3putEc(ptr noundef nonnull align 8 dereferenceable(8) @_ZSt4cout, i8 noundef signext %.0.i.i.i)
  %23 = tail call noundef nonnull align 8 dereferenceable(8) ptr @_ZNSo5flushEv(ptr noundef nonnull align 8 dereferenceable(8) %22)
  call void @llvm.lifetime.start.p0(i64 736, ptr nonnull %3) #29
  call void @_ZN4DataC2ERKNSt7__cxx1112basic_stringIcSt11char_traitsIcESaIcEEE(ptr noundef nonnull align 8 dereferenceable(736) %3, ptr noundef nonnull align 8 dereferenceable(32) %0)
  invoke void @_Z21loadWithErrorRecoveryR4DataRK7Optionsb(ptr noundef nonnull align 8 dereferenceable(736) %3, ptr noundef nonnull align 4 dereferenceable(37) %1, i1 noundef zeroext true)
          to label %24 unwind label %50

24:                                               ; preds = %_ZSt4endlIcSt11char_traitsIcEERSt13basic_ostreamIT_T0_ES6_.exit
  %25 = getelementptr inbounds nuw i8, ptr %3, i64 88
  call void @_ZN7lodepng5StateD1Ev(ptr noundef nonnull align 8 dereferenceable(640) %25) #29
  %26 = getelementptr inbounds nuw i8, ptr %3, i64 56
  %27 = load ptr, ptr %26, align 8, !tbaa !118
  %.not.i.i.i.i = icmp eq ptr %27, null
  br i1 %.not.i.i.i.i, label %_ZNSt6vectorIhSaIhEED2Ev.exit.i, label %28

28:                                               ; preds = %24
  %29 = getelementptr inbounds nuw i8, ptr %3, i64 72
  %30 = load ptr, ptr %29, align 8, !tbaa !119
  %31 = ptrtoint ptr %30 to i64
  %32 = ptrtoint ptr %27 to i64
  %33 = sub i64 %31, %32
  call void @_ZdlPvm(ptr noundef nonnull %27, i64 noundef %33) #30
  br label %_ZNSt6vectorIhSaIhEED2Ev.exit.i

_ZNSt6vectorIhSaIhEED2Ev.exit.i:                  ; preds = %28, %24
  %34 = getelementptr inbounds nuw i8, ptr %3, i64 32
  %35 = load ptr, ptr %34, align 8, !tbaa !118
  %.not.i.i.i1.i = icmp eq ptr %35, null
  br i1 %.not.i.i.i1.i, label %_ZNSt6vectorIhSaIhEED2Ev.exit2.i, label %36

36:                                               ; preds = %_ZNSt6vectorIhSaIhEED2Ev.exit.i
  %37 = getelementptr inbounds nuw i8, ptr %3, i64 48
  %38 = load ptr, ptr %37, align 8, !tbaa !119
  %39 = ptrtoint ptr %38 to i64
  %40 = ptrtoint ptr %35 to i64
  %41 = sub i64 %39, %40
  call void @_ZdlPvm(ptr noundef nonnull %35, i64 noundef %41) #30
  br label %_ZNSt6vectorIhSaIhEED2Ev.exit2.i

_ZNSt6vectorIhSaIhEED2Ev.exit2.i:                 ; preds = %36, %_ZNSt6vectorIhSaIhEED2Ev.exit.i
  %42 = load ptr, ptr %3, align 8, !tbaa !40
  %43 = getelementptr inbounds nuw i8, ptr %3, i64 16
  %44 = icmp eq ptr %42, %43
  br i1 %44, label %_ZNKSt7__cxx1112basic_stringIcSt11char_traitsIcESaIcEE11_M_is_localEv.exit.thread.i.i.i, label %_ZNKSt7__cxx1112basic_stringIcSt11char_traitsIcESaIcEE11_M_is_localEv.exit.i.i.i

_ZNKSt7__cxx1112basic_stringIcSt11char_traitsIcESaIcEE11_M_is_localEv.exit.thread.i.i.i: ; preds = %_ZNSt6vectorIhSaIhEED2Ev.exit2.i
  %45 = getelementptr inbounds nuw i8, ptr %3, i64 8
  %46 = load i64, ptr %45, align 8, !tbaa !38
  %47 = icmp ult i64 %46, 16
  call void @llvm.assume(i1 %47)
  br label %_ZN4DataD2Ev.exit

_ZNKSt7__cxx1112basic_stringIcSt11char_traitsIcESaIcEE11_M_is_localEv.exit.i.i.i: ; preds = %_ZNSt6vectorIhSaIhEED2Ev.exit2.i
  %48 = load i64, ptr %43, align 8, !tbaa !32
  %49 = add i64 %48, 1
  call void @_ZdlPvm(ptr noundef %42, i64 noundef %49) #30
  br label %_ZN4DataD2Ev.exit

_ZN4DataD2Ev.exit:                                ; preds = %_ZNKSt7__cxx1112basic_stringIcSt11char_traitsIcESaIcEE11_M_is_localEv.exit.thread.i.i.i, %_ZNKSt7__cxx1112basic_stringIcSt11char_traitsIcESaIcEE11_M_is_localEv.exit.i.i.i
  call void @llvm.lifetime.end.p0(i64 736, ptr nonnull %3) #29
  ret void

50:                                               ; preds = %_ZSt4endlIcSt11char_traitsIcEERSt13basic_ostreamIT_T0_ES6_.exit
  %51 = landingpad { ptr, i32 }
          cleanup
  call void @_ZN4DataD2Ev(ptr noundef nonnull align 8 dereferenceable(736) %3) #29
  call void @llvm.lifetime.end.p0(i64 736, ptr nonnull %3) #29
  resume { ptr, i32 } %51
}